; Function Attrs: null_pointer_is_valid sspstrong uwtable
define internal i32 @dissect_FMP_GetMapEx_request(ptr noundef %0, ptr readnone captures(none) %1, ptr noundef %2, ptr readnone captures(none) %3) #0 {
  %5 = load i32, ptr @hf_fmp_fmpFHandle, align 4
  %6 = tail call i32 @dissect_rpc_data(ptr noundef %0, ptr noundef %2, i32 noundef %5, i32 noundef 0)
  %7 = load i32, ptr @hf_fmp_msgNum, align 4
  %8 = tail call i32 @dissect_rpc_uint32(ptr noundef %0, ptr noundef %2, i32 noundef %7, i32 noundef %6)
  %9 = load i32, ptr @hf_fmp_firstLogBlk64, align 4
  %10 = tail call i32 @dissect_rpc_uint64(ptr noundef %0, ptr noundef %2, i32 noundef %9, i32 noundef %8)
  %11 = load i32, ptr @hf_fmp_numBlksReq, align 4
  %12 = tail call i32 @dissect_rpc_uint32(ptr noundef %0, ptr noundef %2, i32 noundef %11, i32 noundef %10)
  %13 = load i32, ptr @hf_fmp_minBlks, align 4
  %14 = tail call i32 @dissect_rpc_uint32(ptr noundef %0, ptr noundef %2, i32 noundef %13, i32 noundef %12)
  ret i32 %14
}